target datalayout = "e-m:e-p270:32:32-p271:32:32-p272:64:64-i64:64-i128:128-f80:128-n8:16:32:64-S128"
target triple = "x86_64-pc-linux-gnu"

%struct.QArrayData = type { %"class.QtPrivate::RefCount", i32, i32, i64 }
%"class.QtPrivate::RefCount" = type { %class.QBasicAtomicInteger }
%class.QBasicAtomicInteger = type { %"struct.std::atomic" }
%"struct.std::atomic" = type { %"struct.std::__atomic_base" }
%"struct.std::__atomic_base" = type { i32 }
%struct.QHashData = type <{ ptr, ptr, %"class.QtPrivate::RefCount", i32, i32, i16, i16, i32, i32, i32, [4 x i8] }>
%"class.vcg::Matrix44" = type { %"struct.std::array.166" }
%"struct.std::array.166" = type { [16 x float] }
%class.QHash = type { %union.anon.202 }
%union.anon.202 = type { ptr }
%class.QVector = type { ptr }
%"class.vcg::Point2.165" = type { [2 x float] }
%struct.Patch = type <{ ptr, %"class.std::vector.463", %"class.std::vector.463", %"class.std::vector.468", %"class.vcg::Box2", %"class.vcg::Matrix44", i8, [7 x i8] }>
%"class.std::vector.463" = type { %"struct.std::_Vector_base.464" }
%"struct.std::_Vector_base.464" = type { %"struct.std::_Vector_base<CFaceO *, std::allocator<CFaceO *>>::_Vector_impl" }
%"struct.std::_Vector_base<CFaceO *, std::allocator<CFaceO *>>::_Vector_impl" = type { %"struct.std::_Vector_base<CFaceO *, std::allocator<CFaceO *>>::_Vector_impl_data" }
%"struct.std::_Vector_base<CFaceO *, std::allocator<CFaceO *>>::_Vector_impl_data" = type { ptr, ptr, ptr }
%"class.std::vector.468" = type { %"struct.std::_Vector_base.469" }
%"struct.std::_Vector_base.469" = type { %"struct.std::_Vector_base<TriangleUV, std::allocator<TriangleUV>>::_Vector_impl" }
%"struct.std::_Vector_base<TriangleUV, std::allocator<TriangleUV>>::_Vector_impl" = type { %"struct.std::_Vector_base<TriangleUV, std::allocator<TriangleUV>>::_Vector_impl_data" }
%"struct.std::_Vector_base<TriangleUV, std::allocator<TriangleUV>>::_Vector_impl_data" = type { ptr, ptr, ptr }
%"class.vcg::Box2" = type { %"class.vcg::Point2.165", %"class.vcg::Point2.165" }
%struct.QHashNode = type { ptr, i32, ptr, %class.QVector }
%"class.QHash<RasterModel *, QVector<Patch>>::const_iterator" = type { ptr }

; Function Attrs: mustprogress nounwind uwtable
define linkonce_odr noundef ptr @_ZNK10QArrayData4dataEv(ptr noundef nonnull align 8 dereferenceable(24) %0) #4 comdat align 2 {
  %2 = alloca ptr, align 8
  store ptr %0, ptr %2, align 8
  %3 = load ptr, ptr %2, align 8
  %4 = getelementptr inbounds %struct.QArrayData, ptr %3, i32 0, i32 3
  %5 = load i64, ptr %4, align 8
  %6 = getelementptr inbounds i8, ptr %3, i64 %5
  ret ptr %6
}

; Function Attrs: mustprogress uwtable
define linkonce_odr noundef ptr @_ZNK15QTypedArrayDataI5PatchE4dataEv(ptr noundef nonnull align 8 dereferenceable(24) %0) #5 comdat align 2 {
  %2 = alloca ptr, align 8
  store ptr %0, ptr %2, align 8
  %3 = load ptr, ptr %2, align 8
  %4 = call noundef ptr @_ZNK10QArrayData4dataEv(ptr noundef nonnull align 8 dereferenceable(24) %3)
  ret ptr %4
}

; Function Attrs: mustprogress nounwind uwtable
define linkonce_odr noundef nonnull align 4 dereferenceable(4) ptr @_ZNK3vcg6Point2IfEixEi(ptr noundef nonnull align 4 dereferenceable(8) %0, i32 noundef %1) #4 comdat align 2 {
  %3 = alloca ptr, align 8
  %4 = alloca i32, align 4
  store ptr %0, ptr %3, align 8
  store i32 %1, ptr %4, align 4
  %5 = load ptr, ptr %3, align 8
  %6 = getelementptr inbounds %"class.vcg::Point2.165", ptr %5, i32 0, i32 0
  %7 = load i32, ptr %4, align 4
  %8 = sext i32 %7 to i64
  %9 = getelementptr inbounds [2 x float], ptr %6, i64 0, i64 %8
  ret ptr %9
}

; Function Attrs: mustprogress uwtable
define linkonce_odr noundef ptr @_ZNK15QTypedArrayDataI5PatchE8constEndEPKS0_(ptr noundef nonnull align 8 dereferenceable(24) %0, ptr noundef %1) #5 comdat align 2 {
  %3 = alloca ptr, align 8
  %4 = alloca ptr, align 8
  store ptr %0, ptr %3, align 8
  store ptr %1, ptr %4, align 8
  %5 = load ptr, ptr %3, align 8
  %6 = call noundef ptr @_ZNK15QTypedArrayDataI5PatchE4dataEv(ptr noundef nonnull align 8 dereferenceable(24) %5)
  %7 = getelementptr inbounds %struct.QArrayData, ptr %5, i32 0, i32 1
  %8 = load i32, ptr %7, align 4
  %9 = sext i32 %8 to i64
  %10 = getelementptr inbounds %struct.Patch, ptr %6, i64 %9
  ret ptr %10
}

; Function Attrs: noreturn nounwind uwtable
define linkonce_odr hidden void @__clang_call_terminate(ptr noundef %0) #9 comdat {
  %2 = call ptr @__cxa_begin_catch(ptr %0) #3
  call void @_ZSt9terminatev() #22
  unreachable
}

; Function Attrs: mustprogress uwtable
define linkonce_odr noundef ptr @_ZNK15QTypedArrayDataI5PatchE10constBeginEPKS0_(ptr noundef nonnull align 8 dereferenceable(24) %0, ptr noundef %1) #5 comdat align 2 {
  %3 = alloca ptr, align 8
  %4 = alloca ptr, align 8
  store ptr %0, ptr %3, align 8
  store ptr %1, ptr %4, align 8
  %5 = load ptr, ptr %3, align 8
  %6 = call noundef ptr @_ZNK15QTypedArrayDataI5PatchE4dataEv(ptr noundef nonnull align 8 dereferenceable(24) %5)
  ret ptr %6
}

; Function Attrs: mustprogress nounwind uwtable
define linkonce_odr noundef ptr @_ZN5QHashIP11RasterModel7QVectorI5PatchEE8concreteEPN9QHashData4NodeE(ptr noundef %0) #4 comdat align 2 {
  %2 = alloca ptr, align 8
  store ptr %0, ptr %2, align 8
  %3 = load ptr, ptr %2, align 8
  ret ptr %3
}

; Function Attrs: mustprogress nounwind uwtable
define linkonce_odr void @_ZN5QHashIP11RasterModel7QVectorI5PatchEE14const_iteratorC2EPv(ptr noundef nonnull align 8 dereferenceable(8) %0, ptr noundef %1) unnamed_addr #4 comdat align 2 {
  %3 = alloca ptr, align 8
  %4 = alloca ptr, align 8
  store ptr %0, ptr %3, align 8
  store ptr %1, ptr %4, align 8
  %5 = load ptr, ptr %3, align 8
  %6 = getelementptr inbounds %"class.QHash<RasterModel *, QVector<Patch>>::const_iterator", ptr %5, i32 0, i32 0
  %7 = load ptr, ptr %4, align 8
  store ptr %7, ptr %6, align 8
  ret void
}

; Function Attrs: mustprogress nounwind uwtable
define linkonce_odr noundef ptr @_ZN9QHashData9firstNodeEv(ptr noundef nonnull align 8 dereferenceable(44) %0) #4 comdat align 2 {
  %2 = alloca ptr, align 8
  %3 = alloca ptr, align 8
  %4 = alloca ptr, align 8
  %5 = alloca ptr, align 8
  %6 = alloca i32, align 4
  store ptr %0, ptr %3, align 8
  %7 = load ptr, ptr %3, align 8
  store ptr %7, ptr %4, align 8
  %8 = getelementptr inbounds %struct.QHashData, ptr %7, i32 0, i32 1
  %9 = load ptr, ptr %8, align 8
  store ptr %9, ptr %5, align 8
  %10 = getelementptr inbounds %struct.QHashData, ptr %7, i32 0, i32 7
  %11 = load i32, ptr %10, align 8
  store i32 %11, ptr %6, align 4
  br label %12

12:                                               ; preds = %24, %1
  %13 = load i32, ptr %6, align 4
  %14 = add nsw i32 %13, -1
  store i32 %14, ptr %6, align 4
  %15 = icmp ne i32 %13, 0
  br i1 %15, label %16, label %27

16:                                               ; preds = %12
  %17 = load ptr, ptr %5, align 8
  %18 = load ptr, ptr %17, align 8
  %19 = load ptr, ptr %4, align 8
  %20 = icmp ne ptr %18, %19
  br i1 %20, label %21, label %24

21:                                               ; preds = %16
  %22 = load ptr, ptr %5, align 8
  %23 = load ptr, ptr %22, align 8
  store ptr %23, ptr %2, align 8
  br label %29

24:                                               ; preds = %16
  %25 = load ptr, ptr %5, align 8
  %26 = getelementptr inbounds ptr, ptr %25, i32 1
  store ptr %26, ptr %5, align 8
  br label %12, !llvm.loop !209

27:                                               ; preds = %12
  %28 = load ptr, ptr %4, align 8
  store ptr %28, ptr %2, align 8
  br label %29

29:                                               ; preds = %27, %21
  %30 = load ptr, ptr %2, align 8
  ret ptr %30
}

; Function Attrs: mustprogress uwtable
define linkonce_odr noundef nonnull align 8 dereferenceable(8) ptr @_ZN5QHashIP11RasterModel7QVectorI5PatchEE14const_iteratorppEv(ptr noundef nonnull align 8 dereferenceable(8) %0) #5 comdat align 2 {
  %2 = alloca ptr, align 8
  store ptr %0, ptr %2, align 8
  %3 = load ptr, ptr %2, align 8
  %4 = getelementptr inbounds %"class.QHash<RasterModel *, QVector<Patch>>::const_iterator", ptr %3, i32 0, i32 0
  %5 = load ptr, ptr %4, align 8
  %6 = call noundef ptr @_ZN9QHashData8nextNodeEPNS_4NodeE(ptr noundef %5)
  %7 = getelementptr inbounds %"class.QHash<RasterModel *, QVector<Patch>>::const_iterator", ptr %3, i32 0, i32 0
  store ptr %6, ptr %7, align 8
  ret ptr %3
}

; Function Attrs: mustprogress uwtable
define linkonce_odr noundef float @_ZNK3vcg4Box2IfE4AreaEv(ptr noundef nonnull align 4 dereferenceable(16) %0) #5 comdat align 2 {
  %2 = alloca ptr, align 8
  store ptr %0, ptr %2, align 8
  %3 = load ptr, ptr %2, align 8
  %4 = getelementptr inbounds %"class.vcg::Box2", ptr %3, i32 0, i32 1
  %5 = call noundef nonnull align 4 dereferenceable(4) ptr @_ZNK3vcg6Point2IfEixEi(ptr noundef nonnull align 4 dereferenceable(8) %4, i32 noundef 0)
  %6 = load float, ptr %5, align 4
  %7 = getelementptr inbounds %"class.vcg::Box2", ptr %3, i32 0, i32 0
  %8 = call noundef nonnull align 4 dereferenceable(4) ptr @_ZNK3vcg6Point2IfEixEi(ptr noundef nonnull align 4 dereferenceable(8) %7, i32 noundef 0)
  %9 = load float, ptr %8, align 4
  %10 = fsub float %6, %9
  %11 = getelementptr inbounds %"class.vcg::Box2", ptr %3, i32 0, i32 1
  %12 = call noundef nonnull align 4 dereferenceable(4) ptr @_ZNK3vcg6Point2IfEixEi(ptr noundef nonnull align 4 dereferenceable(8) %11, i32 noundef 1)
  %13 = load float, ptr %12, align 4
  %14 = getelementptr inbounds %"class.vcg::Box2", ptr %3, i32 0, i32 0
  %15 = call noundef nonnull align 4 dereferenceable(4) ptr @_ZNK3vcg6Point2IfEixEi(ptr noundef nonnull align 4 dereferenceable(8) %14, i32 noundef 1)
  %16 = load float, ptr %15, align 4
  %17 = fsub float %13, %16
  %18 = fmul float %10, %17
  ret float %18
}

; Function Attrs: mustprogress nounwind uwtable
define linkonce_odr noundef ptr @_ZNK7QVectorI5PatchE3endEv(ptr noundef nonnull align 8 dereferenceable(8) %0) #4 comdat align 2 personality ptr @__gxx_personality_v0 {
  %2 = alloca ptr, align 8
  store ptr %0, ptr %2, align 8
  %3 = load ptr, ptr %2, align 8
  %4 = getelementptr inbounds %class.QVector, ptr %3, i32 0, i32 0
  %5 = load ptr, ptr %4, align 8
  %6 = invoke noundef ptr @_ZNK15QTypedArrayDataI5PatchE8constEndEPKS0_(ptr noundef nonnull align 8 dereferenceable(24) %5, ptr noundef null)
          to label %7 unwind label %8

7:                                                ; preds = %1
  ret ptr %6

8:                                                ; preds = %1
  %9 = landingpad { ptr, i32 }
          catch ptr null
  %10 = extractvalue { ptr, i32 } %9, 0
  call void @__clang_call_terminate(ptr %10) #22
  unreachable
}

; Function Attrs: mustprogress nounwind uwtable
define linkonce_odr noundef ptr @_ZNK7QVectorI5PatchE5beginEv(ptr noundef nonnull align 8 dereferenceable(8) %0) #4 comdat align 2 personality ptr @__gxx_personality_v0 {
  %2 = alloca ptr, align 8
  store ptr %0, ptr %2, align 8
  %3 = load ptr, ptr %2, align 8
  %4 = getelementptr inbounds %class.QVector, ptr %3, i32 0, i32 0
  %5 = load ptr, ptr %4, align 8
  %6 = invoke noundef ptr @_ZNK15QTypedArrayDataI5PatchE10constBeginEPKS0_(ptr noundef nonnull align 8 dereferenceable(24) %5, ptr noundef null)
          to label %7 unwind label %8

7:                                                ; preds = %1
  ret ptr %6

8:                                                ; preds = %1
  %9 = landingpad { ptr, i32 }
          catch ptr null
  %10 = extractvalue { ptr, i32 } %9, 0
  call void @__clang_call_terminate(ptr %10) #22
  unreachable
}

; Function Attrs: mustprogress nounwind uwtable
define linkonce_odr noundef nonnull align 8 dereferenceable(8) ptr @_ZNK5QHashIP11RasterModel7QVectorI5PatchEE14const_iteratordeEv(ptr noundef nonnull align 8 dereferenceable(8) %0) #4 comdat align 2 {
  %2 = alloca ptr, align 8
  store ptr %0, ptr %2, align 8
  %3 = load ptr, ptr %2, align 8
  %4 = getelementptr inbounds %"class.QHash<RasterModel *, QVector<Patch>>::const_iterator", ptr %3, i32 0, i32 0
  %5 = load ptr, ptr %4, align 8
  %6 = call noundef ptr @_ZN5QHashIP11RasterModel7QVectorI5PatchEE8concreteEPN9QHashData4NodeE(ptr noundef %5)
  %7 = getelementptr inbounds %struct.QHashNode, ptr %6, i32 0, i32 3
  ret ptr %7
}

; Function Attrs: mustprogress nounwind uwtable
define linkonce_odr noundef zeroext i1 @_ZNK5QHashIP11RasterModel7QVectorI5PatchEE14const_iteratorneERKS6_(ptr noundef nonnull align 8 dereferenceable(8) %0, ptr noundef nonnull align 8 dereferenceable(8) %1) #4 comdat align 2 {
  %3 = alloca ptr, align 8
  %4 = alloca ptr, align 8
  store ptr %0, ptr %3, align 8
  store ptr %1, ptr %4, align 8
  %5 = load ptr, ptr %3, align 8
  %6 = getelementptr inbounds %"class.QHash<RasterModel *, QVector<Patch>>::const_iterator", ptr %5, i32 0, i32 0
  %7 = load ptr, ptr %6, align 8
  %8 = load ptr, ptr %4, align 8
  %9 = getelementptr inbounds %"class.QHash<RasterModel *, QVector<Patch>>::const_iterator", ptr %8, i32 0, i32 0
  %10 = load ptr, ptr %9, align 8
  %11 = icmp ne ptr %7, %10
  ret i1 %11
}

; Function Attrs: mustprogress uwtable
define linkonce_odr ptr @_ZNK5QHashIP11RasterModel7QVectorI5PatchEE3endEv(ptr noundef nonnull align 8 dereferenceable(8) %0) #5 comdat align 2 {
  %2 = alloca %"class.QHash<RasterModel *, QVector<Patch>>::const_iterator", align 8
  %3 = alloca ptr, align 8
  store ptr %0, ptr %3, align 8
  %4 = load ptr, ptr %3, align 8
  %5 = getelementptr inbounds %class.QHash, ptr %4, i32 0, i32 0
  %6 = load ptr, ptr %5, align 8
  call void @_ZN5QHashIP11RasterModel7QVectorI5PatchEE14const_iteratorC2EPv(ptr noundef nonnull align 8 dereferenceable(8) %2, ptr noundef %6)
  %7 = getelementptr inbounds %"class.QHash<RasterModel *, QVector<Patch>>::const_iterator", ptr %2, i32 0, i32 0
  %8 = load ptr, ptr %7, align 8
  ret ptr %8
}

; Function Attrs: mustprogress uwtable
define linkonce_odr ptr @_ZNK5QHashIP11RasterModel7QVectorI5PatchEE5beginEv(ptr noundef nonnull align 8 dereferenceable(8) %0) #5 comdat align 2 {
  %2 = alloca %"class.QHash<RasterModel *, QVector<Patch>>::const_iterator", align 8
  %3 = alloca ptr, align 8
  store ptr %0, ptr %3, align 8
  %4 = load ptr, ptr %3, align 8
  %5 = getelementptr inbounds %class.QHash, ptr %4, i32 0, i32 0
  %6 = load ptr, ptr %5, align 8
  %7 = call noundef ptr @_ZN9QHashData9firstNodeEv(ptr noundef nonnull align 8 dereferenceable(44) %6)
  call void @_ZN5QHashIP11RasterModel7QVectorI5PatchEE14const_iteratorC2EPv(ptr noundef nonnull align 8 dereferenceable(8) %2, ptr noundef %7)
  %8 = getelementptr inbounds %"class.QHash<RasterModel *, QVector<Patch>>::const_iterator", ptr %2, i32 0, i32 0
  %9 = load ptr, ptr %8, align 8
  ret ptr %9
}

; Function Attrs: mustprogress uwtable
define noundef float @_ZN25FilterImgPatchParamPlugin21computeTotalPatchAreaERK5QHashIP11RasterModel7QVectorI5PatchEE(ptr noundef nonnull align 8 dereferenceable(88) %0, ptr noundef nonnull align 8 dereferenceable(8) %1) #5 align 2 {
  %3 = alloca ptr, align 8
  %4 = alloca ptr, align 8
  %5 = alloca float, align 4
  %6 = alloca ptr, align 8
  %7 = alloca %"class.QHash<RasterModel *, QVector<Patch>>::const_iterator", align 8
  %8 = alloca %"class.QHash<RasterModel *, QVector<Patch>>::const_iterator", align 8
  %9 = alloca ptr, align 8
  %10 = alloca ptr, align 8
  %11 = alloca ptr, align 8
  %12 = alloca ptr, align 8
  %13 = alloca ptr, align 8
  store ptr %0, ptr %3, align 8
  store ptr %1, ptr %4, align 8
  store float 0.000000e+00, ptr %5, align 4
  %14 = load ptr, ptr %4, align 8
  store ptr %14, ptr %6, align 8
  %15 = load ptr, ptr %6, align 8
  %16 = call ptr @_ZNK5QHashIP11RasterModel7QVectorI5PatchEE5beginEv(ptr noundef nonnull align 8 dereferenceable(8) %15)
  %17 = getelementptr inbounds %"class.QHash<RasterModel *, QVector<Patch>>::const_iterator", ptr %7, i32 0, i32 0
  store ptr %16, ptr %17, align 8
  %18 = load ptr, ptr %6, align 8
  %19 = call ptr @_ZNK5QHashIP11RasterModel7QVectorI5PatchEE3endEv(ptr noundef nonnull align 8 dereferenceable(8) %18)
  %20 = getelementptr inbounds %"class.QHash<RasterModel *, QVector<Patch>>::const_iterator", ptr %8, i32 0, i32 0
  store ptr %19, ptr %20, align 8
  br label %21

21:                                               ; preds = %45, %2
  %22 = call noundef zeroext i1 @_ZNK5QHashIP11RasterModel7QVectorI5PatchEE14const_iteratorneERKS6_(ptr noundef nonnull align 8 dereferenceable(8) %7, ptr noundef nonnull align 8 dereferenceable(8) %8)
  br i1 %22, label %23, label %47

23:                                               ; preds = %21
  %24 = call noundef nonnull align 8 dereferenceable(8) ptr @_ZNK5QHashIP11RasterModel7QVectorI5PatchEE14const_iteratordeEv(ptr noundef nonnull align 8 dereferenceable(8) %7)
  store ptr %24, ptr %9, align 8
  %25 = load ptr, ptr %9, align 8
  store ptr %25, ptr %10, align 8
  %26 = load ptr, ptr %10, align 8
  %27 = call noundef ptr @_ZNK7QVectorI5PatchE5beginEv(ptr noundef nonnull align 8 dereferenceable(8) %26) #3
  store ptr %27, ptr %11, align 8
  %28 = load ptr, ptr %10, align 8
  %29 = call noundef ptr @_ZNK7QVectorI5PatchE3endEv(ptr noundef nonnull align 8 dereferenceable(8) %28) #3
  store ptr %29, ptr %12, align 8
  br label %30

30:                                               ; preds = %41, %23
  %31 = load ptr, ptr %11, align 8
  %32 = load ptr, ptr %12, align 8
  %33 = icmp ne ptr %31, %32
  br i1 %33, label %34, label %44

34:                                               ; preds = %30
  %35 = load ptr, ptr %11, align 8
  store ptr %35, ptr %13, align 8
  %36 = load ptr, ptr %13, align 8
  %37 = getelementptr inbounds %struct.Patch, ptr %36, i32 0, i32 4
  %38 = call noundef float @_ZNK3vcg4Box2IfE4AreaEv(ptr noundef nonnull align 4 dereferenceable(16) %37)
  %39 = load float, ptr %5, align 4
  %40 = fadd float %39, %38
  store float %40, ptr %5, align 4
  br label %41

41:                                               ; preds = %34
  %42 = load ptr, ptr %11, align 8
  %43 = getelementptr inbounds %struct.Patch, ptr %42, i32 1
  store ptr %43, ptr %11, align 8
  br label %30

44:                                               ; preds = %30
  br label %45

45:                                               ; preds = %44
  %46 = call noundef nonnull align 8 dereferenceable(8) ptr @_ZN5QHashIP11RasterModel7QVectorI5PatchEE14const_iteratorppEv(ptr noundef nonnull align 8 dereferenceable(8) %7)
  br label %21

47:                                               ; preds = %21
  %48 = load float, ptr %5, align 4
  ret float %48
}