; Function Attrs: mustprogress uwtable
define noundef float @_ZN25FilterImgPatchParamPlugin21computeTotalPatchAreaERK5QHashIP11RasterModel7QVectorI5PatchEE(ptr nocapture noundef nonnull readnone align 8 dereferenceable(88) %0, ptr nocapture noundef nonnull readonly align 8 dereferenceable(8) %1) local_unnamed_addr #9 align 2 personality ptr @__gxx_personality_v0 {
  %3 = load ptr, ptr %1, align 8
  %4 = getelementptr inbounds i8, ptr %3, i64 32
  %5 = load i32, ptr %4, align 8
  %.not11.i.i = icmp eq i32 %5, 0
  br i1 %.not11.i.i, label %._crit_edge25, label %.lr.ph.preheader.i.i

.lr.ph.preheader.i.i:                             ; preds = %2
  %6 = getelementptr inbounds i8, ptr %3, i64 8
  %7 = load ptr, ptr %6, align 8
  br label %.lr.ph.i.i

8:                                                ; preds = %.lr.ph.i.i
  %9 = add nsw i32 %.in.i.i, -1
  %10 = getelementptr inbounds i8, ptr %.0712.i.i, i64 8
  %.not.i.i = icmp eq i32 %9, 0
  br i1 %.not.i.i, label %._crit_edge25, label %.lr.ph.i.i, !llvm.loop !66

.lr.ph.i.i:                                       ; preds = %8, %.lr.ph.preheader.i.i
  %.in.i.i = phi i32 [ %9, %8 ], [ %5, %.lr.ph.preheader.i.i ]
  %.0712.i.i = phi ptr [ %10, %8 ], [ %7, %.lr.ph.preheader.i.i ]
  %11 = load ptr, ptr %.0712.i.i, align 8
  %.not10.i.i = icmp eq ptr %11, %3
  br i1 %.not10.i.i, label %8, label %.lr.ph24

.lr.ph24:                                         ; preds = %.lr.ph.i.i, %._crit_edge
  %.023 = phi float [ %.1.lcssa, %._crit_edge ], [ 0.000000e+00, %.lr.ph.i.i ]
  %.sroa.014.022 = phi ptr [ %30, %._crit_edge ], [ %11, %.lr.ph.i.i ]
  %12 = getelementptr inbounds i8, ptr %.sroa.014.022, i64 24
  %13 = load ptr, ptr %12, align 8
  %14 = getelementptr inbounds i8, ptr %13, i64 16
  %15 = load i64, ptr %14, align 8
  %16 = getelementptr inbounds i8, ptr %13, i64 %15
  %17 = getelementptr inbounds i8, ptr %13, i64 4
  %18 = load i32, ptr %17, align 4
  %19 = sext i32 %18 to i64
  %20 = getelementptr inbounds %struct.Patch, ptr %16, i64 %19
  %.not18 = icmp eq i32 %18, 0
  br i1 %.not18, label %._crit_edge, label %.lr.ph

.lr.ph:                                           ; preds = %.lr.ph24, %.lr.ph
  %.120 = phi float [ %28, %.lr.ph ], [ %.023, %.lr.ph24 ]
  %.01319 = phi ptr [ %29, %.lr.ph ], [ %16, %.lr.ph24 ]
  %21 = getelementptr inbounds i8, ptr %.01319, i64 80
  %22 = getelementptr inbounds i8, ptr %.01319, i64 88
  %23 = load <2 x float>, ptr %22, align 4
  %24 = load <2 x float>, ptr %21, align 4
  %25 = fsub <2 x float> %23, %24
  %shift = shufflevector <2 x float> %25, <2 x float> poison, <2 x i32> <i32 1, i32 poison>
  %26 = fmul <2 x float> %25, %shift
  %27 = extractelement <2 x float> %26, i64 0
  %28 = fadd float %.120, %27
  %29 = getelementptr inbounds i8, ptr %.01319, i64 168
  %.not = icmp eq ptr %29, %20
  br i1 %.not, label %._crit_edge, label %.lr.ph

._crit_edge:                                      ; preds = %.lr.ph, %.lr.ph24
  %.1.lcssa = phi float [ %.023, %.lr.ph24 ], [ %28, %.lr.ph ]
  %30 = tail call noundef ptr @_ZN9QHashData8nextNodeEPNS_4NodeE(ptr noundef %.sroa.014.022)
  %.not17 = icmp eq ptr %30, %3
  br i1 %.not17, label %._crit_edge25, label %.lr.ph24

._crit_edge25:                                    ; preds = %8, %._crit_edge, %2
  %.0.lcssa = phi float [ 0.000000e+00, %2 ], [ %.1.lcssa, %._crit_edge ], [ 0.000000e+00, %8 ]
  ret float %.0.lcssa
}